(ikeras_frcnn.config
Config
p0
(dp1
S'use_vertical_flips'
p2
I00
sS'verbose'
p3
I01
sS'classifier_regr_std'
p4
(lp5
F8.0
aF8.0
aF4.0
aF4.0
asS'classifier_min_overlap'
p6
F0.1
sS'rot_90'
p7
I00
sS'class_mapping'
p8
(dp9
S'haifeisi'
p10
I98
sS'fosters'
p11
I96
sS'chinamobile'
p12
I49
sS'skii'
p13
I107
sS'qiangsheng'
p14
I99
sS'chair'
p15
I1
sS'vita'
p16
I11
sS'aldi'
p17
I59
sS'fanta'
p18
I38
sS'haier'
p19
I46
sS'hippo'
p20
I56
sS'bear'
p21
I68
sS'giraffe'
p22
I83
sS'starbucks'
p23
I27
sS'listerine'
p24
I114
sS'chanel'
p25
I77
sS'wanglaoji'
p26
I28
sS'sofa'
p27
I5
sS'car'
p28
I6
sS'chinatelecom'
p29
I84
sS'ups'
p30
I58
sS'google'
p31
I119
sS'bicycle'
p32
I43
sS'minute_en'
p33
I93
sS'yeehoo'
p34
I39
sS'fish'
p35
I66
sS'ef'
p36
I45
sS'paulaner'
p37
I69
sS'seal'
p38
I42
sS'singha'
p39
I106
sS'minute_zh'
p40
I14
sS'panda'
p41
I12
sS'fedex'
p42
I100
sS'huawei'
p43
I13
sS'yidiandian'
p44
I48
sS'bird'
p45
I16
sS'bg'
p46
I121
sS'DAVIDOFF'
p47
I71
sS'pepsi'
p48
I61
sS'zhaohang'
p49
I92
sS'Anchor'
p50
I35
sS'motorbike'
p51
I70
sS'Jia Duo Bao'
p52
I80
sS'sea lion'
p53
I44
sS'cow'
p54
I18
sS'walrus'
p55
I53
sS'tongyi'
p56
I88
sS'milka'
p57
I112
sS'wolf'
p58
I34
sS'kangshifu'
p59
I55
sS'heytea'
p60
I26
sS'chinaunicom'
p61
I105
sS'guiness'
p62
I103
sS'apple'
p63
I79
sS'adidas'
p64
I117
sS'budweiser'
p65
I54
sS'chuncui'
p66
I76
sS'mirinda'
p67
I91
sS'pottedplant'
p68
I4
sS'harbinbeer'
p69
I9
sS'mizone'
p70
I89
sS'boat'
p71
I19
sS'sheep'
p72
I29
sS'horse'
p73
I25
sS'monkey'
p74
I65
sS'texaco'
p75
I111
sS'esso'
p76
I110
sS'chimay'
p77
I118
sS'BURGERKING'
p78
I64
sS'HP'
p79
I72
sS'wushilan'
p80
I60
sS'sprite'
p81
I67
sS'bus'
p82
I87
sS'shengdanbei'
p83
I97
sS'tvmonitor'
p84
I3
sS'ford'
p85
I113
sS'tiger'
p86
I37
sS'train'
p87
I10
sS'bmw'
p88
I85
sS'safeguard'
p89
I78
sS'xinxiangyin'
p90
I101
sS'heineken'
p91
I23
sS'erdinger'
p92
I41
sS'lion'
p93
I17
sS'cat'
p94
I20
sS'gree'
p95
I108
sS'lays'
p96
I31
sS'aeroplane'
p97
I36
sS'midea'
p98
I95
sS'rittersport'
p99
I120
sS'weiquan'
p100
I75
sS'dolphin'
p101
I15
sS'stellaartois'
p102
I104
sS'yili'
p103
I21
sS'koala'
p104
I32
sS'ambrosial'
p105
I51
sS'cocacola'
p106
I73
sS'rhinoceros'
p107
I57
sS'keaiduo'
p108
I63
sS'elephant'
p109
I47
sS'magnum'
p110
I94
sS'shell'
p111
I116
sS'lipton'
p112
I102
sS'mengniu'
p113
I81
sS'becks'
p114
I52
sS'tsingtao'
p115
I82
sS'carlsberg'
p116
I24
sS'dhl'
p117
I109
sS'polar bear'
p118
I90
sS'nongfushanquan'
p119
I22
sS'heluxue'
p120
I62
sS'whale'
p121
I30
sS'dove'
p122
I115
sS'diningtable'
p123
I2
sS'red bull'
p124
I86
sS'vaseline'
p125
I74
sS'dog'
p126
I8
sS'corona'
p127
I0
sS'person'
p128
I7
sS'ferrari'
p129
I33
sS'bottle'
p130
I50
sS'nvidia'
p131
I40
ssS'use_horizontal_flips'
p132
I00
sS'rpn_max_overlap'
p133
F0.7
sS'network'
p134
S'resnet101_pruning'
p135
sS'img_channel_mean'
p136
(lp137
F103.939
aF116.779
aF123.68
asS'balanced_classes'
p138
I00
sS'anchor_box_ratios'
p139
(lp140
(lp141
I1
aI1
aa(lp142
F0.7071067811865475
aF1.414213562373095
aa(lp143
F1.414213562373095
aF0.7071067811865475
aasS'img_scaling_factor'
p144
F1.0
sS'rpn_stride'
p145
I16
sS'num_rois'
p146
I32
sS'base_net_weights'
p147
S'./weights.00007.hdf5'
p148
sS'anchor_box_scales'
p149
(lp150
I128
aI256
aI512
asS'rpn_min_overlap'
p151
F0.3
sS'model_path'
p152
S'./model_frcnn.hdf5'
p153
sS'classifier_max_overlap'
p154
F0.5
sS'std_scaling'
p155
F4.0
sS'im_size'
p156
I600
sb.